; Function Attrs: mustprogress nofree norecurse nosync nounwind willreturn memory(argmem: read) uwtable
define noundef zeroext i1 @_Z19inputrecPbcXY2WallsPK10t_inputrec(ptr noundef readonly captures(none) %0) local_unnamed_addr #15 {
  %2 = getelementptr inbounds nuw i8, ptr %0, i64 176
  %3 = load i32, ptr %2, align 8, !tbaa !293
  %4 = icmp eq i32 %3, 2
  br i1 %4, label %5, label %9

5:                                                ; preds = %1
  %6 = getelementptr inbounds nuw i8, ptr %0, i64 560
  %7 = load i32, ptr %6, align 8, !tbaa !334
  %8 = icmp eq i32 %7, 2
  br label %9

9:                                                ; preds = %5, %1
  %10 = phi i1 [ false, %1 ], [ %8, %5 ]
  ret i1 %10
}